target datalayout = "e-m:e-p270:32:32-p271:32:32-p272:64:64-i64:64-i128:128-f80:128-n8:16:32:64-S128"
target triple = "x86_64-pc-linux-gnu"

%"class.Imf_3_4::FastHufDecoder" = type { i32, i32, i8, i8, ptr, [59 x i64], [59 x i64], [4096 x i32], [4096 x i8], i64 }

@_ZTIN7Iex_3_48InputExcE = external constant ptr
@.str.3 = private unnamed_addr constant [32 x i8] c"Huffman decode error (Overrun).\00", align 1

; Function Attrs: mustprogress uwtable
define hidden void @_ZN7Imf_3_414FastHufDecoder11buildTablesEPmS1_(ptr noundef nonnull align 8 dereferenceable(21456) %0, ptr noundef %1, ptr noundef %2) #0 align 2 personality ptr @__gxx_personality_v0 {
  %4 = alloca ptr, align 8
  %5 = alloca ptr, align 8
  %6 = alloca ptr, align 8
  %7 = alloca i32, align 4
  %8 = alloca i32, align 4
  %9 = alloca i64, align 8
  %10 = alloca i32, align 4
  %11 = alloca i64, align 8
  %12 = alloca i32, align 4
  %13 = alloca i64, align 8
  %14 = alloca ptr, align 8
  %15 = alloca i32, align 4
  %16 = alloca i32, align 4
  store ptr %0, ptr %4, align 8, !tbaa !3
  store ptr %1, ptr %5, align 8, !tbaa !41
  store ptr %2, ptr %6, align 8, !tbaa !41
  %17 = load ptr, ptr %4, align 8
  call void @llvm.lifetime.start.p0(i64 4, ptr %7) #14
  store i32 0, ptr %7, align 4, !tbaa !11
  br label %18

18:                                               ; preds = %49, %3
  %19 = load i32, ptr %7, align 4, !tbaa !11
  %20 = icmp sle i32 %19, 58
  br i1 %20, label %22, label %21

21:                                               ; preds = %18
  call void @llvm.lifetime.end.p0(i64 4, ptr %7) #14
  br label %52

22:                                               ; preds = %18
  %23 = load ptr, ptr %5, align 8, !tbaa !41
  %24 = load i32, ptr %7, align 4, !tbaa !11
  %25 = sext i32 %24 to i64
  %26 = getelementptr inbounds i64, ptr %23, i64 %25
  %27 = load i64, ptr %26, align 8, !tbaa !21
  %28 = icmp ne i64 %27, -1
  br i1 %28, label %29, label %43

29:                                               ; preds = %22
  %30 = load ptr, ptr %5, align 8, !tbaa !41
  %31 = load i32, ptr %7, align 4, !tbaa !11
  %32 = sext i32 %31 to i64
  %33 = getelementptr inbounds i64, ptr %30, i64 %32
  %34 = load i64, ptr %33, align 8, !tbaa !21
  %35 = load i32, ptr %7, align 4, !tbaa !11
  %36 = sub nsw i32 64, %35
  %37 = zext i32 %36 to i64
  %38 = shl i64 %34, %37
  %39 = getelementptr inbounds nuw %"class.Imf_3_4::FastHufDecoder", ptr %17, i32 0, i32 5
  %40 = load i32, ptr %7, align 4, !tbaa !11
  %41 = sext i32 %40 to i64
  %42 = getelementptr inbounds [59 x i64], ptr %39, i64 0, i64 %41
  store i64 %38, ptr %42, align 8, !tbaa !21
  br label %48

43:                                               ; preds = %22
  %44 = getelementptr inbounds nuw %"class.Imf_3_4::FastHufDecoder", ptr %17, i32 0, i32 5
  %45 = load i32, ptr %7, align 4, !tbaa !11
  %46 = sext i32 %45 to i64
  %47 = getelementptr inbounds [59 x i64], ptr %44, i64 0, i64 %46
  store i64 -1, ptr %47, align 8, !tbaa !21
  br label %48

48:                                               ; preds = %43, %29
  br label %49

49:                                               ; preds = %48
  %50 = load i32, ptr %7, align 4, !tbaa !11
  %51 = add nsw i32 %50, 1
  store i32 %51, ptr %7, align 4, !tbaa !11
  br label %18, !llvm.loop !52

52:                                               ; preds = %21
  %53 = load ptr, ptr %6, align 8, !tbaa !41
  %54 = getelementptr inbounds i64, ptr %53, i64 0
  %55 = load i64, ptr %54, align 8, !tbaa !21
  %56 = getelementptr inbounds nuw %"class.Imf_3_4::FastHufDecoder", ptr %17, i32 0, i32 5
  %57 = getelementptr inbounds [59 x i64], ptr %56, i64 0, i64 0
  %58 = load i64, ptr %57, align 8, !tbaa !21
  %59 = sub i64 %55, %58
  %60 = getelementptr inbounds nuw %"class.Imf_3_4::FastHufDecoder", ptr %17, i32 0, i32 6
  %61 = getelementptr inbounds [59 x i64], ptr %60, i64 0, i64 0
  store i64 %59, ptr %61, align 8, !tbaa !21
  call void @llvm.lifetime.start.p0(i64 4, ptr %8) #14
  store i32 1, ptr %8, align 4, !tbaa !11
  br label %62

62:                                               ; preds = %86, %52
  %63 = load i32, ptr %8, align 4, !tbaa !11
  %64 = icmp sle i32 %63, 58
  br i1 %64, label %66, label %65

65:                                               ; preds = %62
  call void @llvm.lifetime.end.p0(i64 4, ptr %8) #14
  br label %89

66:                                               ; preds = %62
  %67 = load ptr, ptr %6, align 8, !tbaa !41
  %68 = load i32, ptr %8, align 4, !tbaa !11
  %69 = sext i32 %68 to i64
  %70 = getelementptr inbounds i64, ptr %67, i64 %69
  %71 = load i64, ptr %70, align 8, !tbaa !21
  %72 = getelementptr inbounds nuw %"class.Imf_3_4::FastHufDecoder", ptr %17, i32 0, i32 5
  %73 = load i32, ptr %8, align 4, !tbaa !11
  %74 = sext i32 %73 to i64
  %75 = getelementptr inbounds [59 x i64], ptr %72, i64 0, i64 %74
  %76 = load i64, ptr %75, align 8, !tbaa !21
  %77 = load i32, ptr %8, align 4, !tbaa !11
  %78 = sub nsw i32 64, %77
  %79 = zext i32 %78 to i64
  %80 = lshr i64 %76, %79
  %81 = sub i64 %71, %80
  %82 = getelementptr inbounds nuw %"class.Imf_3_4::FastHufDecoder", ptr %17, i32 0, i32 6
  %83 = load i32, ptr %8, align 4, !tbaa !11
  %84 = sext i32 %83 to i64
  %85 = getelementptr inbounds [59 x i64], ptr %82, i64 0, i64 %84
  store i64 %81, ptr %85, align 8, !tbaa !21
  br label %86

86:                                               ; preds = %66
  %87 = load i32, ptr %8, align 4, !tbaa !11
  %88 = add nsw i32 %87, 1
  store i32 %88, ptr %8, align 4, !tbaa !11
  br label %62, !llvm.loop !53

89:                                               ; preds = %65
  call void @llvm.lifetime.start.p0(i64 8, ptr %9) #14
  store i64 0, ptr %9, align 8, !tbaa !21
  br label %90

90:                                               ; preds = %166, %89
  %91 = load i64, ptr %9, align 8, !tbaa !21
  %92 = icmp ult i64 %91, 4096
  br i1 %92, label %94, label %93

93:                                               ; preds = %90
  store i32 8, ptr %10, align 4
  call void @llvm.lifetime.end.p0(i64 8, ptr %9) #14
  br label %169

94:                                               ; preds = %90
  call void @llvm.lifetime.start.p0(i64 8, ptr %11) #14
  %95 = load i64, ptr %9, align 8, !tbaa !21
  %96 = shl i64 %95, 52
  store i64 %96, ptr %11, align 8, !tbaa !21
  %97 = getelementptr inbounds nuw %"class.Imf_3_4::FastHufDecoder", ptr %17, i32 0, i32 7
  %98 = load i64, ptr %9, align 8, !tbaa !21
  %99 = getelementptr inbounds nuw [4096 x i32], ptr %97, i64 0, i64 %98
  store i32 65535, ptr %99, align 4, !tbaa !11
  %100 = getelementptr inbounds nuw %"class.Imf_3_4::FastHufDecoder", ptr %17, i32 0, i32 8
  %101 = load i64, ptr %9, align 8, !tbaa !21
  %102 = getelementptr inbounds nuw [4096 x i8], ptr %100, i64 0, i64 %101
  store i8 0, ptr %102, align 1, !tbaa !44
  call void @llvm.lifetime.start.p0(i64 4, ptr %12) #14
  %103 = getelementptr inbounds nuw %"class.Imf_3_4::FastHufDecoder", ptr %17, i32 0, i32 2
  %104 = load i8, ptr %103, align 8, !tbaa !18
  %105 = zext i8 %104 to i32
  store i32 %105, ptr %12, align 4, !tbaa !11
  br label %106

106:                                              ; preds = %161, %94
  %107 = load i32, ptr %12, align 4, !tbaa !11
  %108 = getelementptr inbounds nuw %"class.Imf_3_4::FastHufDecoder", ptr %17, i32 0, i32 3
  %109 = load i8, ptr %108, align 1, !tbaa !19
  %110 = zext i8 %109 to i32
  %111 = icmp sle i32 %107, %110
  br i1 %111, label %113, label %112

112:                                              ; preds = %106
  store i32 11, ptr %10, align 4
  br label %164

113:                                              ; preds = %106
  %114 = getelementptr inbounds nuw %"class.Imf_3_4::FastHufDecoder", ptr %17, i32 0, i32 5
  %115 = load i32, ptr %12, align 4, !tbaa !11
  %116 = sext i32 %115 to i64
  %117 = getelementptr inbounds [59 x i64], ptr %114, i64 0, i64 %116
  %118 = load i64, ptr %117, align 8, !tbaa !21
  %119 = load i64, ptr %11, align 8, !tbaa !21
  %120 = icmp ule i64 %118, %119
  br i1 %120, label %121, label %160

121:                                              ; preds = %113
  %122 = load i32, ptr %12, align 4, !tbaa !11
  %123 = trunc i32 %122 to i8
  %124 = getelementptr inbounds nuw %"class.Imf_3_4::FastHufDecoder", ptr %17, i32 0, i32 8
  %125 = load i64, ptr %9, align 8, !tbaa !21
  %126 = getelementptr inbounds nuw [4096 x i8], ptr %124, i64 0, i64 %125
  store i8 %123, ptr %126, align 1, !tbaa !44
  call void @llvm.lifetime.start.p0(i64 8, ptr %13) #14
  %127 = getelementptr inbounds nuw %"class.Imf_3_4::FastHufDecoder", ptr %17, i32 0, i32 6
  %128 = load i32, ptr %12, align 4, !tbaa !11
  %129 = sext i32 %128 to i64
  %130 = getelementptr inbounds [59 x i64], ptr %127, i64 0, i64 %129
  %131 = load i64, ptr %130, align 8, !tbaa !21
  %132 = load i64, ptr %11, align 8, !tbaa !21
  %133 = load i32, ptr %12, align 4, !tbaa !11
  %134 = sub nsw i32 64, %133
  %135 = zext i32 %134 to i64
  %136 = lshr i64 %132, %135
  %137 = add i64 %131, %136
  store i64 %137, ptr %13, align 8, !tbaa !21
  %138 = load i64, ptr %13, align 8, !tbaa !21
  %139 = getelementptr inbounds nuw %"class.Imf_3_4::FastHufDecoder", ptr %17, i32 0, i32 1
  %140 = load i32, ptr %139, align 4, !tbaa !17
  %141 = sext i32 %140 to i64
  %142 = icmp ult i64 %138, %141
  br i1 %142, label %143, label %152

143:                                              ; preds = %121
  %144 = getelementptr inbounds nuw %"class.Imf_3_4::FastHufDecoder", ptr %17, i32 0, i32 4
  %145 = load ptr, ptr %144, align 8, !tbaa !20
  %146 = load i64, ptr %13, align 8, !tbaa !21
  %147 = getelementptr inbounds nuw i32, ptr %145, i64 %146
  %148 = load i32, ptr %147, align 4, !tbaa !11
  %149 = getelementptr inbounds nuw %"class.Imf_3_4::FastHufDecoder", ptr %17, i32 0, i32 7
  %150 = load i64, ptr %9, align 8, !tbaa !21
  %151 = getelementptr inbounds nuw [4096 x i32], ptr %149, i64 0, i64 %150
  store i32 %148, ptr %151, align 4, !tbaa !11
  br label %159

152:                                              ; preds = %121
  %153 = call ptr @__cxa_allocate_exception(i64 72) #14
  invoke void @_ZN7Iex_3_48InputExcC1EPKc(ptr noundef nonnull align 8 dereferenceable(72) %153, ptr noundef @.str.3)
          to label %154 unwind label %155

154:                                              ; preds = %152
  call void @__cxa_throw(ptr %153, ptr @_ZTIN7Iex_3_48InputExcE, ptr @_ZN7Iex_3_48InputExcD1Ev) #15
  unreachable

155:                                              ; preds = %152
  %156 = landingpad { ptr, i32 }
          cleanup
  %157 = extractvalue { ptr, i32 } %156, 0
  store ptr %157, ptr %14, align 8
  %158 = extractvalue { ptr, i32 } %156, 1
  store i32 %158, ptr %15, align 4
  call void @__cxa_free_exception(ptr %153) #14
  call void @llvm.lifetime.end.p0(i64 8, ptr %13) #14
  call void @llvm.lifetime.end.p0(i64 4, ptr %12) #14
  call void @llvm.lifetime.end.p0(i64 8, ptr %11) #14
  call void @llvm.lifetime.end.p0(i64 8, ptr %9) #14
  br label %198

159:                                              ; preds = %143
  store i32 11, ptr %10, align 4
  call void @llvm.lifetime.end.p0(i64 8, ptr %13) #14
  br label %164

160:                                              ; preds = %113
  br label %161

161:                                              ; preds = %160
  %162 = load i32, ptr %12, align 4, !tbaa !11
  %163 = add nsw i32 %162, 1
  store i32 %163, ptr %12, align 4, !tbaa !11
  br label %106, !llvm.loop !54

164:                                              ; preds = %159, %112
  call void @llvm.lifetime.end.p0(i64 4, ptr %12) #14
  br label %165

165:                                              ; preds = %164
  call void @llvm.lifetime.end.p0(i64 8, ptr %11) #14
  br label %166

166:                                              ; preds = %165
  %167 = load i64, ptr %9, align 8, !tbaa !21
  %168 = add i64 %167, 1
  store i64 %168, ptr %9, align 8, !tbaa !21
  br label %90, !llvm.loop !55

169:                                              ; preds = %93
  call void @llvm.lifetime.start.p0(i64 4, ptr %16) #14
  store i32 12, ptr %16, align 4, !tbaa !11
  br label %170

170:                                              ; preds = %182, %169
  %171 = load i32, ptr %16, align 4, !tbaa !11
  %172 = icmp sgt i32 %171, 0
  br i1 %172, label %173, label %180

173:                                              ; preds = %170
  %174 = getelementptr inbounds nuw %"class.Imf_3_4::FastHufDecoder", ptr %17, i32 0, i32 5
  %175 = load i32, ptr %16, align 4, !tbaa !11
  %176 = sext i32 %175 to i64
  %177 = getelementptr inbounds [59 x i64], ptr %174, i64 0, i64 %176
  %178 = load i64, ptr %177, align 8, !tbaa !21
  %179 = icmp eq i64 %178, -1
  br label %180

180:                                              ; preds = %173, %170
  %181 = phi i1 [ false, %170 ], [ %179, %173 ]
  br i1 %181, label %182, label %185

182:                                              ; preds = %180
  %183 = load i32, ptr %16, align 4, !tbaa !11
  %184 = add nsw i32 %183, -1
  store i32 %184, ptr %16, align 4, !tbaa !11
  br label %170, !llvm.loop !56

185:                                              ; preds = %180
  %186 = load i32, ptr %16, align 4, !tbaa !11
  %187 = icmp slt i32 %186, 0
  br i1 %187, label %188, label %190

188:                                              ; preds = %185
  %189 = getelementptr inbounds nuw %"class.Imf_3_4::FastHufDecoder", ptr %17, i32 0, i32 9
  store i64 -1, ptr %189, align 8, !tbaa !57
  br label %197

190:                                              ; preds = %185
  %191 = getelementptr inbounds nuw %"class.Imf_3_4::FastHufDecoder", ptr %17, i32 0, i32 5
  %192 = load i32, ptr %16, align 4, !tbaa !11
  %193 = sext i32 %192 to i64
  %194 = getelementptr inbounds [59 x i64], ptr %191, i64 0, i64 %193
  %195 = load i64, ptr %194, align 8, !tbaa !21
  %196 = getelementptr inbounds nuw %"class.Imf_3_4::FastHufDecoder", ptr %17, i32 0, i32 9
  store i64 %195, ptr %196, align 8, !tbaa !57
  br label %197

197:                                              ; preds = %190, %188
  call void @llvm.lifetime.end.p0(i64 4, ptr %16) #14
  ret void

198:                                              ; preds = %155
  %199 = load ptr, ptr %14, align 8
  %200 = load i32, ptr %15, align 4
  %201 = insertvalue { ptr, i32 } poison, ptr %199, 0
  %202 = insertvalue { ptr, i32 } %201, i32 %200, 1
  resume { ptr, i32 } %202
}