; Function Attrs: mustprogress uwtable
define hidden void @_ZN7Imf_3_414FastHufDecoder11buildTablesEPmS1_(ptr noundef nonnull align 8 captures(none) dereferenceable(21456) %0, ptr noundef readonly captures(none) %1, ptr noundef readonly captures(none) %2) local_unnamed_addr #0 align 2 personality ptr @__gxx_personality_v0 {
  %4 = getelementptr inbounds nuw i8, ptr %0, i64 24
  br label %10

5:                                                ; preds = %10
  %6 = load i64, ptr %2, align 8, !tbaa !15
  %7 = load i64, ptr %4, align 8, !tbaa !15
  %8 = sub i64 %6, %7
  %9 = getelementptr inbounds nuw i8, ptr %0, i64 496
  store i64 %8, ptr %9, align 8, !tbaa !15
  br label %32

10:                                               ; preds = %3, %10
  %indvars.iv = phi i64 [ 0, %3 ], [ %indvars.iv.next, %10 ]
  %11 = getelementptr inbounds nuw i64, ptr %1, i64 %indvars.iv
  %12 = load i64, ptr %11, align 8, !tbaa !15
  %.not49 = icmp eq i64 %12, -1
  %13 = sub nuw nsw i64 64, %indvars.iv
  %14 = shl i64 %12, %13
  %.sink = select i1 %.not49, i64 -1, i64 %14
  %15 = getelementptr inbounds nuw [59 x i64], ptr %4, i64 0, i64 %indvars.iv
  store i64 %.sink, ptr %15, align 8, !tbaa !15
  %indvars.iv.next = add nuw nsw i64 %indvars.iv, 1
  %exitcond.not = icmp eq i64 %indvars.iv.next, 59
  br i1 %exitcond.not, label %5, label %10, !llvm.loop !31

.preheader50:                                     ; preds = %32
  %16 = getelementptr inbounds nuw i8, ptr %0, i64 968
  %17 = getelementptr inbounds nuw i8, ptr %0, i64 17352
  %18 = getelementptr inbounds nuw i8, ptr %0, i64 8
  %19 = load i8, ptr %18, align 8, !tbaa !12
  %20 = getelementptr inbounds nuw i8, ptr %0, i64 9
  %21 = load i8, ptr %20, align 1, !tbaa !13
  %.not56 = icmp ugt i8 %19, %21
  %22 = getelementptr inbounds nuw i8, ptr %0, i64 4
  %23 = load i32, ptr %22, align 4
  %24 = sext i32 %23 to i64
  %25 = getelementptr inbounds nuw i8, ptr %0, i64 16
  %26 = load ptr, ptr %25, align 8
  br i1 %.not56, label %.loopexit.us, label %.lr.ph.preheader

.lr.ph.preheader:                                 ; preds = %.preheader50
  %27 = zext i8 %21 to i64
  %28 = zext i8 %19 to i64
  br label %.lr.ph

.loopexit.us:                                     ; preds = %.preheader50, %.loopexit.us
  %.04358.us = phi i64 [ %31, %.loopexit.us ], [ 0, %.preheader50 ]
  %29 = getelementptr inbounds nuw [4096 x i32], ptr %16, i64 0, i64 %.04358.us
  store i32 65535, ptr %29, align 4, !tbaa !29
  %30 = getelementptr inbounds nuw [4096 x i8], ptr %17, i64 0, i64 %.04358.us
  store i8 0, ptr %30, align 1, !tbaa !18
  %31 = add nuw nsw i64 %.04358.us, 1
  %exitcond75.not = icmp eq i64 %31, 4096
  br i1 %exitcond75.not, label %.preheader.preheader, label %.loopexit.us, !llvm.loop !32

32:                                               ; preds = %5, %32
  %indvars.iv66 = phi i64 [ 1, %5 ], [ %indvars.iv.next67, %32 ]
  %33 = getelementptr inbounds nuw i64, ptr %2, i64 %indvars.iv66
  %34 = load i64, ptr %33, align 8, !tbaa !15
  %35 = getelementptr inbounds nuw [59 x i64], ptr %4, i64 0, i64 %indvars.iv66
  %36 = load i64, ptr %35, align 8, !tbaa !15
  %37 = sub nuw nsw i64 64, %indvars.iv66
  %38 = lshr i64 %36, %37
  %39 = sub i64 %34, %38
  %40 = getelementptr inbounds nuw [59 x i64], ptr %9, i64 0, i64 %indvars.iv66
  store i64 %39, ptr %40, align 8, !tbaa !15
  %indvars.iv.next67 = add nuw nsw i64 %indvars.iv66, 1
  %exitcond69.not = icmp eq i64 %indvars.iv.next67, 59
  br i1 %exitcond69.not, label %.preheader50, label %32, !llvm.loop !33

.lr.ph:                                           ; preds = %.lr.ph.preheader, %..loopexit_crit_edge
  %.04358 = phi i64 [ %65, %..loopexit_crit_edge ], [ 0, %.lr.ph.preheader ]
  %41 = shl nuw i64 %.04358, 52
  %42 = getelementptr inbounds nuw [4096 x i32], ptr %16, i64 0, i64 %.04358
  store i32 65535, ptr %42, align 4, !tbaa !29
  %43 = getelementptr inbounds nuw [4096 x i8], ptr %17, i64 0, i64 %.04358
  store i8 0, ptr %43, align 1, !tbaa !18
  br label %44

44:                                               ; preds = %.lr.ph, %64
  %indvars.iv70 = phi i64 [ %28, %.lr.ph ], [ %indvars.iv.next71, %64 ]
  %45 = getelementptr inbounds nuw [59 x i64], ptr %4, i64 0, i64 %indvars.iv70
  %46 = load i64, ptr %45, align 8, !tbaa !15
  %.not48 = icmp ugt i64 %46, %41
  br i1 %.not48, label %64, label %47

47:                                               ; preds = %44
  %48 = trunc i64 %indvars.iv70 to i8
  store i8 %48, ptr %43, align 1, !tbaa !18
  %49 = getelementptr inbounds nuw [59 x i64], ptr %9, i64 0, i64 %indvars.iv70
  %50 = load i64, ptr %49, align 8, !tbaa !15
  %51 = sub nsw i64 64, %indvars.iv70
  %52 = and i64 %51, 4294967295
  %53 = lshr i64 %41, %52
  %54 = add i64 %50, %53
  %55 = icmp ult i64 %54, %24
  br i1 %55, label %56, label %59

56:                                               ; preds = %47
  %57 = getelementptr inbounds nuw i32, ptr %26, i64 %54
  %58 = load i32, ptr %57, align 4, !tbaa !29
  store i32 %58, ptr %42, align 4, !tbaa !29
  br label %..loopexit_crit_edge

59:                                               ; preds = %47
  %60 = tail call ptr @__cxa_allocate_exception(i64 72) #18
  invoke void @_ZN7Iex_3_48InputExcC1EPKc(ptr noundef nonnull align 8 dereferenceable(72) %60, ptr noundef nonnull @.str.3)
          to label %61 unwind label %62

61:                                               ; preds = %59
  tail call void @__cxa_throw(ptr nonnull %60, ptr nonnull @_ZTIN7Iex_3_48InputExcE, ptr nonnull @_ZN7Iex_3_48InputExcD1Ev) #19
  unreachable

62:                                               ; preds = %59
  %63 = landingpad { ptr, i32 }
          cleanup
  tail call void @__cxa_free_exception(ptr nonnull %60) #18
  resume { ptr, i32 } %63

64:                                               ; preds = %44
  %indvars.iv.next71 = add nuw nsw i64 %indvars.iv70, 1
  %exitcond73.not = icmp eq i64 %indvars.iv70, %27
  br i1 %exitcond73.not, label %..loopexit_crit_edge, label %44, !llvm.loop !34

..loopexit_crit_edge:                             ; preds = %64, %56
  %65 = add nuw nsw i64 %.04358, 1
  %exitcond74.not = icmp eq i64 %65, 4096
  br i1 %exitcond74.not, label %.preheader.preheader, label %.lr.ph, !llvm.loop !32

.preheader.preheader:                             ; preds = %..loopexit_crit_edge, %.loopexit.us
  br label %.preheader

.preheader:                                       ; preds = %.preheader.preheader, %70
  %.059 = phi i32 [ %71, %70 ], [ 12, %.preheader.preheader ]
  %66 = zext nneg i32 %.059 to i64
  %67 = getelementptr inbounds nuw [59 x i64], ptr %4, i64 0, i64 %66
  %68 = load i64, ptr %67, align 8, !tbaa !15
  %69 = icmp eq i64 %68, -1
  br i1 %69, label %70, label %73

70:                                               ; preds = %.preheader
  %71 = add nsw i32 %.059, -1
  %72 = icmp ugt i32 %.059, 1
  br i1 %72, label %.preheader, label %73, !llvm.loop !35

73:                                               ; preds = %70, %.preheader
  %74 = phi i64 [ %7, %70 ], [ %68, %.preheader ]
  %75 = getelementptr inbounds nuw i8, ptr %0, i64 21448
  store i64 %74, ptr %75, align 8, !tbaa !36
  ret void
}